target datalayout = "e-m:e-p270:32:32-p271:32:32-p272:64:64-i64:64-i128:128-f80:128-n8:16:32:64-S128"
target triple = "x86_64-pc-linux-gnu"

%struct.strvec = type { ptr, i64, i64 }
%struct.credential_capability = type { i8, [3 x i8] }
%struct.credential_cache_entry = type { %struct.credential, i64 }
%struct.credential = type { %struct.string_list, %struct.strvec, %struct.strvec, %struct.strvec, i16, [2 x i8], %struct.credential_capability, %struct.credential_capability, ptr, ptr, ptr, ptr, ptr, ptr, ptr, i64, ptr }
%struct.string_list = type { ptr, i64, i64, i8, ptr }

@entries_nr = internal global i32 0, align 4
@entries = internal global ptr null, align 8

; Function Attrs: nounwind uwtable
define internal void @remove_credential(ptr noundef %0, i32 noundef %1) #0 {
  %3 = alloca ptr, align 8
  %4 = alloca i32, align 4
  %5 = alloca ptr, align 8
  %6 = alloca i32, align 4
  store ptr %0, ptr %3, align 8, !tbaa !67
  store i32 %1, ptr %4, align 4, !tbaa !4
  call void @llvm.lifetime.start.p0(i64 8, ptr %5) #12
  call void @llvm.lifetime.start.p0(i64 4, ptr %6) #12
  store i32 0, ptr %6, align 4, !tbaa !4
  br label %7

7:                                                ; preds = %26, %2
  %8 = load i32, ptr %6, align 4, !tbaa !4
  %9 = load i32, ptr @entries_nr, align 4, !tbaa !4
  %10 = icmp slt i32 %8, %9
  br i1 %10, label %11, label %29

11:                                               ; preds = %7
  %12 = load ptr, ptr @entries, align 8, !tbaa !41
  %13 = load i32, ptr %6, align 4, !tbaa !4
  %14 = sext i32 %13 to i64
  %15 = getelementptr inbounds %struct.credential_cache_entry, ptr %12, i64 %14
  store ptr %15, ptr %5, align 8, !tbaa !41
  %16 = load ptr, ptr %3, align 8, !tbaa !67
  %17 = load ptr, ptr %5, align 8, !tbaa !41
  %18 = getelementptr inbounds nuw %struct.credential_cache_entry, ptr %17, i32 0, i32 0
  %19 = load i32, ptr %4, align 4, !tbaa !4
  %20 = call i32 @credential_match(ptr noundef %16, ptr noundef %18, i32 noundef %19)
  %21 = icmp ne i32 %20, 0
  br i1 %21, label %22, label %25

22:                                               ; preds = %11
  %23 = load ptr, ptr %5, align 8, !tbaa !41
  %24 = getelementptr inbounds nuw %struct.credential_cache_entry, ptr %23, i32 0, i32 1
  store i64 0, ptr %24, align 8, !tbaa !43
  br label %25

25:                                               ; preds = %22, %11
  br label %26

26:                                               ; preds = %25
  %27 = load i32, ptr %6, align 4, !tbaa !4
  %28 = add nsw i32 %27, 1
  store i32 %28, ptr %6, align 4, !tbaa !4
  br label %7, !llvm.loop !72

29:                                               ; preds = %7
  call void @llvm.lifetime.end.p0(i64 4, ptr %6) #12
  call void @llvm.lifetime.end.p0(i64 8, ptr %5) #12
  ret void
}