; Function Attrs: nounwind uwtable
define internal fastcc void @remove_credential(ptr noundef nonnull %0, i32 noundef range(i32 0, 2) %1) unnamed_addr #0 {
  %3 = load i32, ptr @entries_nr, align 4, !tbaa !4
  %4 = icmp sgt i32 %3, 0
  br i1 %4, label %.lr.ph, label %._crit_edge

.lr.ph:                                           ; preds = %2, %10
  %indvars.iv = phi i64 [ %indvars.iv.next, %10 ], [ 0, %2 ]
  %5 = load ptr, ptr @entries, align 8, !tbaa !32
  %6 = getelementptr inbounds nuw %struct.credential_cache_entry, ptr %5, i64 %indvars.iv
  %7 = tail call i32 @credential_match(ptr noundef nonnull %0, ptr noundef %6, i32 noundef %1) #16
  %.not = icmp eq i32 %7, 0
  br i1 %.not, label %10, label %8

8:                                                ; preds = %.lr.ph
  %9 = getelementptr inbounds nuw i8, ptr %6, i64 200
  store i64 0, ptr %9, align 8, !tbaa !34
  br label %10

10:                                               ; preds = %.lr.ph, %8
  %indvars.iv.next = add nuw nsw i64 %indvars.iv, 1
  %11 = load i32, ptr @entries_nr, align 4, !tbaa !4
  %12 = sext i32 %11 to i64
  %13 = icmp slt i64 %indvars.iv.next, %12
  br i1 %13, label %.lr.ph, label %._crit_edge, !llvm.loop !59

._crit_edge:                                      ; preds = %10, %2
  ret void
}